target datalayout = "e-m:e-p270:32:32-p271:32:32-p272:64:64-i64:64-i128:128-f80:128-n8:16:32:64-S128"
target triple = "x86_64-unknown-linux-gnu"

%class.btGhostObject = type { %class.btCollisionObject.base, [4 x i8], %class.btAlignedObjectArray.0 }
%class.btCollisionObject.base = type <{ ptr, %class.btTransform, %class.btTransform, %class.btVector3, %class.btVector3, %class.btVector3, i32, float, ptr, ptr, ptr, ptr, i32, i32, i32, i32, i32, float, float, float, float, float, float, float, i32, [4 x i8], ptr, i32, i32, i32, float, float, float, i32, [4 x i8], %class.btAlignedObjectArray, i32, %class.btVector3 }>
%class.btTransform = type { %class.btMatrix3x3, %class.btVector3 }
%class.btMatrix3x3 = type { [3 x %class.btVector3] }
%class.btAlignedObjectArray = type <{ %class.btAlignedAllocator, [3 x i8], i32, i32, [4 x i8], ptr, i8, [7 x i8] }>
%class.btAlignedAllocator = type { i8 }
%class.btVector3 = type { [4 x float] }
%class.btAlignedObjectArray.0 = type <{ %class.btAlignedAllocator.1, [3 x i8], i32, i32, [4 x i8], ptr, i8, [7 x i8] }>
%class.btAlignedAllocator.1 = type { i8 }
%class.btCollisionObject = type <{ ptr, %class.btTransform, %class.btTransform, %class.btVector3, %class.btVector3, %class.btVector3, i32, float, ptr, ptr, ptr, ptr, i32, i32, i32, i32, i32, float, float, float, float, float, float, float, i32, [4 x i8], ptr, i32, i32, i32, float, float, float, i32, [4 x i8], %class.btAlignedObjectArray, i32, %class.btVector3, [4 x i8] }>
%struct.btBroadphaseProxy = type <{ ptr, i32, i32, i32, %class.btVector3, %class.btVector3, [4 x i8] }>
%class.btPairCachingGhostObject = type { %class.btGhostObject, ptr }

; Function Attrs: mustprogress nounwind uwtable
define linkonce_odr dso_local void @_ZN20btAlignedObjectArrayIP17btCollisionObjectE8pop_backEv(ptr noundef nonnull align 8 dereferenceable(25) %this) #1 comdat align 2 {
entry:
  %this.addr = alloca ptr, align 8
  store ptr %this, ptr %this.addr, align 8
  %this1 = load ptr, ptr %this.addr, align 8
  %m_size = getelementptr inbounds %class.btAlignedObjectArray.0, ptr %this1, i32 0, i32 2
  %0 = load i32, ptr %m_size, align 4
  %dec = add nsw i32 %0, -1
  store i32 %dec, ptr %m_size, align 4
  ret void
}

; Function Attrs: mustprogress nounwind uwtable
define linkonce_odr dso_local noundef nonnull align 8 dereferenceable(8) ptr @_ZN20btAlignedObjectArrayIP17btCollisionObjectEixEi(ptr noundef nonnull align 8 dereferenceable(25) %this, i32 noundef %n) #1 comdat align 2 {
entry:
  %this.addr = alloca ptr, align 8
  %n.addr = alloca i32, align 4
  store ptr %this, ptr %this.addr, align 8
  store i32 %n, ptr %n.addr, align 4
  %this1 = load ptr, ptr %this.addr, align 8
  %m_data = getelementptr inbounds %class.btAlignedObjectArray.0, ptr %this1, i32 0, i32 5
  %0 = load ptr, ptr %m_data, align 8
  %1 = load i32, ptr %n.addr, align 4
  %idxprom = sext i32 %1 to i64
  %arrayidx = getelementptr inbounds ptr, ptr %0, i64 %idxprom
  ret ptr %arrayidx
}

; Function Attrs: mustprogress nounwind uwtable
define linkonce_odr dso_local noundef i32 @_ZNK20btAlignedObjectArrayIP17btCollisionObjectE4sizeEv(ptr noundef nonnull align 8 dereferenceable(25) %this) #1 comdat align 2 {
entry:
  %this.addr = alloca ptr, align 8
  store ptr %this, ptr %this.addr, align 8
  %this1 = load ptr, ptr %this.addr, align 8
  %m_size = getelementptr inbounds %class.btAlignedObjectArray.0, ptr %this1, i32 0, i32 2
  %0 = load i32, ptr %m_size, align 4
  ret i32 %0
}

; Function Attrs: mustprogress nounwind uwtable
define linkonce_odr dso_local noundef i32 @_ZNK20btAlignedObjectArrayIP17btCollisionObjectE16findLinearSearchERKS1_(ptr noundef nonnull align 8 dereferenceable(25) %this, ptr noundef nonnull align 8 dereferenceable(8) %key) #1 comdat align 2 {
entry:
  %this.addr = alloca ptr, align 8
  %key.addr = alloca ptr, align 8
  %index = alloca i32, align 4
  %i = alloca i32, align 4
  store ptr %this, ptr %this.addr, align 8
  store ptr %key, ptr %key.addr, align 8
  %this1 = load ptr, ptr %this.addr, align 8
  %call = call noundef i32 @_ZNK20btAlignedObjectArrayIP17btCollisionObjectE4sizeEv(ptr noundef nonnull align 8 dereferenceable(25) %this1)
  store i32 %call, ptr %index, align 4
  store i32 0, ptr %i, align 4
  br label %for.cond

for.cond:                                         ; preds = %for.inc, %entry
  %0 = load i32, ptr %i, align 4
  %call2 = call noundef i32 @_ZNK20btAlignedObjectArrayIP17btCollisionObjectE4sizeEv(ptr noundef nonnull align 8 dereferenceable(25) %this1)
  %cmp = icmp slt i32 %0, %call2
  br i1 %cmp, label %for.body, label %for.end

for.body:                                         ; preds = %for.cond
  %m_data = getelementptr inbounds %class.btAlignedObjectArray.0, ptr %this1, i32 0, i32 5
  %1 = load ptr, ptr %m_data, align 8
  %2 = load i32, ptr %i, align 4
  %idxprom = sext i32 %2 to i64
  %arrayidx = getelementptr inbounds ptr, ptr %1, i64 %idxprom
  %3 = load ptr, ptr %arrayidx, align 8
  %4 = load ptr, ptr %key.addr, align 8
  %5 = load ptr, ptr %4, align 8
  %cmp3 = icmp eq ptr %3, %5
  br i1 %cmp3, label %if.then, label %if.end

if.then:                                          ; preds = %for.body
  %6 = load i32, ptr %i, align 4
  store i32 %6, ptr %index, align 4
  br label %for.end

if.end:                                           ; preds = %for.body
  br label %for.inc

for.inc:                                          ; preds = %if.end
  %7 = load i32, ptr %i, align 4
  %inc = add nsw i32 %7, 1
  store i32 %inc, ptr %i, align 4
  br label %for.cond, !llvm.loop !5

for.end:                                          ; preds = %if.then, %for.cond
  %8 = load i32, ptr %index, align 4
  ret i32 %8
}

; Function Attrs: mustprogress nounwind uwtable
define linkonce_odr dso_local noundef ptr @_ZN17btCollisionObject19getBroadphaseHandleEv(ptr noundef nonnull align 8 dereferenceable(372) %this) #1 comdat align 2 {
entry:
  %this.addr = alloca ptr, align 8
  store ptr %this, ptr %this.addr, align 8
  %this1 = load ptr, ptr %this.addr, align 8
  %m_broadphaseHandle = getelementptr inbounds %class.btCollisionObject, ptr %this1, i32 0, i32 8
  %0 = load ptr, ptr %m_broadphaseHandle, align 8
  ret ptr %0
}

; Function Attrs: mustprogress uwtable
define dso_local void @_ZN24btPairCachingGhostObject31removeOverlappingObjectInternalEP17btBroadphaseProxyP12btDispatcherS1_(ptr noundef nonnull align 8 dereferenceable(416) %this, ptr noundef %otherProxy, ptr noundef %dispatcher, ptr noundef %thisProxy1) unnamed_addr #2 align 2 {
entry:
  %this.addr = alloca ptr, align 8
  %otherProxy.addr = alloca ptr, align 8
  %dispatcher.addr = alloca ptr, align 8
  %thisProxy1.addr = alloca ptr, align 8
  %otherObject = alloca ptr, align 8
  %actualThisProxy = alloca ptr, align 8
  %index = alloca i32, align 4
  store ptr %this, ptr %this.addr, align 8
  store ptr %otherProxy, ptr %otherProxy.addr, align 8
  store ptr %dispatcher, ptr %dispatcher.addr, align 8
  store ptr %thisProxy1, ptr %thisProxy1.addr, align 8
  %this1 = load ptr, ptr %this.addr, align 8
  %0 = load ptr, ptr %otherProxy.addr, align 8
  %m_clientObject = getelementptr inbounds %struct.btBroadphaseProxy, ptr %0, i32 0, i32 0
  %1 = load ptr, ptr %m_clientObject, align 8
  store ptr %1, ptr %otherObject, align 8
  %2 = load ptr, ptr %thisProxy1.addr, align 8
  %tobool = icmp ne ptr %2, null
  br i1 %tobool, label %cond.true, label %cond.false

cond.true:                                        ; preds = %entry
  %3 = load ptr, ptr %thisProxy1.addr, align 8
  br label %cond.end

cond.false:                                       ; preds = %entry
  %call = call noundef ptr @_ZN17btCollisionObject19getBroadphaseHandleEv(ptr noundef nonnull align 8 dereferenceable(372) %this1)
  br label %cond.end

cond.end:                                         ; preds = %cond.false, %cond.true
  %cond = phi ptr [ %3, %cond.true ], [ %call, %cond.false ]
  store ptr %cond, ptr %actualThisProxy, align 8
  %m_overlappingObjects = getelementptr inbounds %class.btGhostObject, ptr %this1, i32 0, i32 2
  %call2 = call noundef i32 @_ZNK20btAlignedObjectArrayIP17btCollisionObjectE16findLinearSearchERKS1_(ptr noundef nonnull align 8 dereferenceable(25) %m_overlappingObjects, ptr noundef nonnull align 8 dereferenceable(8) %otherObject)
  store i32 %call2, ptr %index, align 4
  %4 = load i32, ptr %index, align 4
  %m_overlappingObjects3 = getelementptr inbounds %class.btGhostObject, ptr %this1, i32 0, i32 2
  %call4 = call noundef i32 @_ZNK20btAlignedObjectArrayIP17btCollisionObjectE4sizeEv(ptr noundef nonnull align 8 dereferenceable(25) %m_overlappingObjects3)
  %cmp = icmp slt i32 %4, %call4
  br i1 %cmp, label %if.then, label %if.end

if.then:                                          ; preds = %cond.end
  %m_overlappingObjects5 = getelementptr inbounds %class.btGhostObject, ptr %this1, i32 0, i32 2
  %m_overlappingObjects6 = getelementptr inbounds %class.btGhostObject, ptr %this1, i32 0, i32 2
  %call7 = call noundef i32 @_ZNK20btAlignedObjectArrayIP17btCollisionObjectE4sizeEv(ptr noundef nonnull align 8 dereferenceable(25) %m_overlappingObjects6)
  %sub = sub nsw i32 %call7, 1
  %call8 = call noundef nonnull align 8 dereferenceable(8) ptr @_ZN20btAlignedObjectArrayIP17btCollisionObjectEixEi(ptr noundef nonnull align 8 dereferenceable(25) %m_overlappingObjects5, i32 noundef %sub)
  %5 = load ptr, ptr %call8, align 8
  %m_overlappingObjects9 = getelementptr inbounds %class.btGhostObject, ptr %this1, i32 0, i32 2
  %6 = load i32, ptr %index, align 4
  %call10 = call noundef nonnull align 8 dereferenceable(8) ptr @_ZN20btAlignedObjectArrayIP17btCollisionObjectEixEi(ptr noundef nonnull align 8 dereferenceable(25) %m_overlappingObjects9, i32 noundef %6)
  store ptr %5, ptr %call10, align 8
  %m_overlappingObjects11 = getelementptr inbounds %class.btGhostObject, ptr %this1, i32 0, i32 2
  call void @_ZN20btAlignedObjectArrayIP17btCollisionObjectE8pop_backEv(ptr noundef nonnull align 8 dereferenceable(25) %m_overlappingObjects11)
  %m_hashPairCache = getelementptr inbounds %class.btPairCachingGhostObject, ptr %this1, i32 0, i32 1
  %7 = load ptr, ptr %m_hashPairCache, align 8
  %8 = load ptr, ptr %actualThisProxy, align 8
  %9 = load ptr, ptr %otherProxy.addr, align 8
  %10 = load ptr, ptr %dispatcher.addr, align 8
  %vtable = load ptr, ptr %7, align 8
  %vfn = getelementptr inbounds ptr, ptr %vtable, i64 3
  %11 = load ptr, ptr %vfn, align 8
  %call12 = call noundef ptr %11(ptr noundef nonnull align 8 dereferenceable(120) %7, ptr noundef %8, ptr noundef %9, ptr noundef %10)
  br label %if.end

if.end:                                           ; preds = %if.then, %cond.end
  ret void
}