; Function Attrs: mustprogress uwtable
define dso_local void @_ZN24btPairCachingGhostObject31removeOverlappingObjectInternalEP17btBroadphaseProxyP12btDispatcherS1_(ptr nocapture noundef nonnull align 8 dereferenceable(416) %this, ptr noundef %otherProxy, ptr noundef %dispatcher, ptr noundef %thisProxy1) unnamed_addr #0 align 2 {
entry:
  %0 = load ptr, ptr %otherProxy, align 8
  %tobool.not = icmp eq ptr %thisProxy1, null
  %m_broadphaseHandle.i = getelementptr inbounds i8, ptr %this, i64 192
  %1 = load ptr, ptr %m_broadphaseHandle.i, align 8
  %cond = select i1 %tobool.not, ptr %1, ptr %thisProxy1
  %m_size.i.i = getelementptr inbounds i8, ptr %this, i64 380
  %2 = load i32, ptr %m_size.i.i, align 4
  %cmp5.i = icmp sgt i32 %2, 0
  br i1 %cmp5.i, label %for.body.lr.ph.i, label %if.end

for.body.lr.ph.i:                                 ; preds = %entry
  %m_data.i = getelementptr inbounds i8, ptr %this, i64 392
  %3 = load ptr, ptr %m_data.i, align 8
  %wide.trip.count.i = zext nneg i32 %2 to i64
  br label %for.body.i

for.body.i:                                       ; preds = %for.inc.i, %for.body.lr.ph.i
  %indvars.iv.i = phi i64 [ 0, %for.body.lr.ph.i ], [ %indvars.iv.next.i, %for.inc.i ]
  %arrayidx.i = getelementptr inbounds ptr, ptr %3, i64 %indvars.iv.i
  %4 = load ptr, ptr %arrayidx.i, align 8
  %cmp3.i = icmp eq ptr %4, %0
  br i1 %cmp3.i, label %_ZNK20btAlignedObjectArrayIP17btCollisionObjectE16findLinearSearchERKS1_.exit, label %for.inc.i

for.inc.i:                                        ; preds = %for.body.i
  %indvars.iv.next.i = add nuw nsw i64 %indvars.iv.i, 1
  %exitcond.not.i = icmp eq i64 %indvars.iv.next.i, %wide.trip.count.i
  br i1 %exitcond.not.i, label %if.end, label %for.body.i, !llvm.loop !5

_ZNK20btAlignedObjectArrayIP17btCollisionObjectE16findLinearSearchERKS1_.exit: ; preds = %for.body.i
  %5 = trunc i64 %indvars.iv.i to i32
  %cmp = icmp sgt i32 %2, %5
  br i1 %cmp, label %if.then, label %if.end

if.then:                                          ; preds = %_ZNK20btAlignedObjectArrayIP17btCollisionObjectE16findLinearSearchERKS1_.exit
  %6 = getelementptr ptr, ptr %3, i64 %wide.trip.count.i
  %arrayidx.i6 = getelementptr i8, ptr %6, i64 -8
  %7 = load ptr, ptr %arrayidx.i6, align 8
  %sext = shl i64 %indvars.iv.i, 32
  %idxprom.i8 = ashr exact i64 %sext, 32
  %arrayidx.i9 = getelementptr inbounds ptr, ptr %3, i64 %idxprom.i8
  store ptr %7, ptr %arrayidx.i9, align 8
  %8 = load i32, ptr %m_size.i.i, align 4
  %dec.i = add nsw i32 %8, -1
  store i32 %dec.i, ptr %m_size.i.i, align 4
  %m_hashPairCache = getelementptr inbounds i8, ptr %this, i64 408
  %9 = load ptr, ptr %m_hashPairCache, align 8
  %vtable = load ptr, ptr %9, align 8
  %vfn = getelementptr inbounds i8, ptr %vtable, i64 24
  %10 = load ptr, ptr %vfn, align 8
  %call12 = tail call noundef ptr %10(ptr noundef nonnull align 8 dereferenceable(120) %9, ptr noundef %cond, ptr noundef nonnull %otherProxy, ptr noundef %dispatcher)
  br label %if.end

if.end:                                           ; preds = %for.inc.i, %entry, %if.then, %_ZNK20btAlignedObjectArrayIP17btCollisionObjectE16findLinearSearchERKS1_.exit
  ret void
}